target datalayout = "e-m:e-p270:32:32-p271:32:32-p272:64:64-i64:64-i128:128-f80:128-n8:16:32:64-S128"
target triple = "x86_64-pc-linux-gnu"

; Function Attrs: nounwind uwtable
define zeroext i1 @_zend_handle_numeric_str_ex(ptr noundef %0, i64 noundef %1, ptr noundef %2) #0 {
  %4 = alloca i1, align 1
  %5 = alloca ptr, align 8
  %6 = alloca i64, align 8
  %7 = alloca ptr, align 8
  %8 = alloca ptr, align 8
  %9 = alloca ptr, align 8
  store ptr %0, ptr %5, align 8
  store i64 %1, ptr %6, align 8
  store ptr %2, ptr %7, align 8
  %10 = load ptr, ptr %5, align 8
  store ptr %10, ptr %8, align 8
  %11 = load ptr, ptr %5, align 8
  %12 = load i64, ptr %6, align 8
  %13 = getelementptr inbounds i8, ptr %11, i64 %12
  store ptr %13, ptr %9, align 8
  %14 = load ptr, ptr %8, align 8
  %15 = load i8, ptr %14, align 1
  %16 = sext i8 %15 to i32
  %17 = icmp eq i32 %16, 45
  br i1 %17, label %18, label %21

18:                                               ; preds = %3
  %19 = load ptr, ptr %8, align 8
  %20 = getelementptr inbounds i8, ptr %19, i32 1
  store ptr %20, ptr %8, align 8
  br label %21

21:                                               ; preds = %18, %3
  %22 = load ptr, ptr %8, align 8
  %23 = load i8, ptr %22, align 1
  %24 = sext i8 %23 to i32
  %25 = icmp eq i32 %24, 48
  br i1 %25, label %26, label %29

26:                                               ; preds = %21
  %27 = load i64, ptr %6, align 8
  %28 = icmp ugt i64 %27, 1
  br i1 %28, label %36, label %29

29:                                               ; preds = %26, %21
  %30 = load ptr, ptr %9, align 8
  %31 = load ptr, ptr %8, align 8
  %32 = ptrtoint ptr %30 to i64
  %33 = ptrtoint ptr %31 to i64
  %34 = sub i64 %32, %33
  %35 = icmp sgt i64 %34, 19
  br i1 %35, label %36, label %37

36:                                               ; preds = %29, %26
  store i1 false, ptr %4, align 1
  br label %96

37:                                               ; preds = %29
  %38 = load ptr, ptr %8, align 8
  %39 = load i8, ptr %38, align 1
  %40 = sext i8 %39 to i32
  %41 = sub nsw i32 %40, 48
  %42 = sext i32 %41 to i64
  %43 = load ptr, ptr %7, align 8
  store i64 %42, ptr %43, align 8
  br label %44

44:                                               ; preds = %95, %37
  %45 = load ptr, ptr %8, align 8
  %46 = getelementptr inbounds i8, ptr %45, i32 1
  store ptr %46, ptr %8, align 8
  %47 = load ptr, ptr %8, align 8
  %48 = load ptr, ptr %9, align 8
  %49 = icmp eq ptr %47, %48
  br i1 %49, label %50, label %73

50:                                               ; preds = %44
  %51 = load ptr, ptr %5, align 8
  %52 = load i8, ptr %51, align 1
  %53 = sext i8 %52 to i32
  %54 = icmp eq i32 %53, 45
  br i1 %54, label %55, label %66

55:                                               ; preds = %50
  %56 = load ptr, ptr %7, align 8
  %57 = load i64, ptr %56, align 8
  %58 = sub i64 %57, 1
  %59 = icmp ugt i64 %58, 9223372036854775807
  br i1 %59, label %60, label %61

60:                                               ; preds = %55
  store i1 false, ptr %4, align 1
  br label %96

61:                                               ; preds = %55
  %62 = load ptr, ptr %7, align 8
  %63 = load i64, ptr %62, align 8
  %64 = sub i64 0, %63
  %65 = load ptr, ptr %7, align 8
  store i64 %64, ptr %65, align 8
  br label %72

66:                                               ; preds = %50
  %67 = load ptr, ptr %7, align 8
  %68 = load i64, ptr %67, align 8
  %69 = icmp ugt i64 %68, 9223372036854775807
  br i1 %69, label %70, label %71

70:                                               ; preds = %66
  store i1 false, ptr %4, align 1
  br label %96

71:                                               ; preds = %66
  br label %72

72:                                               ; preds = %71, %61
  store i1 true, ptr %4, align 1
  br label %96

73:                                               ; preds = %44
  %74 = load ptr, ptr %8, align 8
  %75 = load i8, ptr %74, align 1
  %76 = sext i8 %75 to i32
  %77 = icmp sle i32 %76, 57
  br i1 %77, label %78, label %94

78:                                               ; preds = %73
  %79 = load ptr, ptr %8, align 8
  %80 = load i8, ptr %79, align 1
  %81 = sext i8 %80 to i32
  %82 = icmp sge i32 %81, 48
  br i1 %82, label %83, label %94

83:                                               ; preds = %78
  %84 = load ptr, ptr %7, align 8
  %85 = load i64, ptr %84, align 8
  %86 = mul i64 %85, 10
  %87 = load ptr, ptr %8, align 8
  %88 = load i8, ptr %87, align 1
  %89 = sext i8 %88 to i32
  %90 = sub nsw i32 %89, 48
  %91 = sext i32 %90 to i64
  %92 = add i64 %86, %91
  %93 = load ptr, ptr %7, align 8
  store i64 %92, ptr %93, align 8
  br label %95

94:                                               ; preds = %78, %73
  store i1 false, ptr %4, align 1
  br label %96

95:                                               ; preds = %83
  br label %44

96:                                               ; preds = %94, %72, %70, %60, %36
  %97 = load i1, ptr %4, align 1
  ret i1 %97
}