; Function Attrs: nofree norecurse nosync nounwind memory(read, argmem: readwrite, inaccessiblemem: none) uwtable
define noundef zeroext i1 @_zend_handle_numeric_str_ex(ptr noundef %0, i64 noundef %1, ptr nocapture noundef writeonly %2) local_unnamed_addr #19 {
  %4 = getelementptr inbounds i8, ptr %0, i64 %1
  %5 = load i8, ptr %0, align 1
  %6 = icmp eq i8 %5, 45
  %spec.select.idx = zext i1 %6 to i64
  %spec.select = getelementptr inbounds i8, ptr %0, i64 %spec.select.idx
  %7 = load i8, ptr %spec.select, align 1
  %8 = icmp eq i8 %7, 48
  %9 = icmp ugt i64 %1, 1
  %or.cond = and i1 %9, %8
  %10 = ptrtoint ptr %4 to i64
  %11 = ptrtoint ptr %spec.select to i64
  %12 = sub i64 %10, %11
  %13 = icmp sgt i64 %12, 19
  %or.cond31 = select i1 %or.cond, i1 true, i1 %13
  br i1 %or.cond31, label %.loopexit, label %14

14:                                               ; preds = %3
  %15 = sext i8 %7 to i64
  %16 = add nsw i64 %15, -48
  store i64 %16, ptr %2, align 8
  %17 = getelementptr inbounds i8, ptr %spec.select, i64 1
  %18 = icmp eq ptr %17, %4
  br i1 %18, label %._crit_edge, label %.lr.ph

._crit_edge:                                      ; preds = %32, %14
  %storemerge.lcssa = phi i64 [ %16, %14 ], [ %35, %32 ]
  %19 = load i8, ptr %0, align 1
  %20 = icmp eq i8 %19, 45
  br i1 %20, label %21, label %26

21:                                               ; preds = %._crit_edge
  %22 = add i64 %storemerge.lcssa, -1
  %23 = icmp slt i64 %22, 0
  br i1 %23, label %.loopexit, label %24

24:                                               ; preds = %21
  %25 = sub i64 0, %storemerge.lcssa
  store i64 %25, ptr %2, align 8
  br label %28

26:                                               ; preds = %._crit_edge
  %27 = icmp slt i64 %storemerge.lcssa, 0
  br i1 %27, label %.loopexit, label %28

28:                                               ; preds = %26, %24
  br label %.loopexit

.lr.ph:                                           ; preds = %14, %32
  %29 = phi ptr [ %36, %32 ], [ %17, %14 ]
  %storemerge34 = phi i64 [ %35, %32 ], [ %16, %14 ]
  %30 = load i8, ptr %29, align 1
  %31 = add i8 %30, -48
  %or.cond32 = icmp ult i8 %31, 10
  br i1 %or.cond32, label %32, label %.loopexit

32:                                               ; preds = %.lr.ph
  %33 = mul i64 %storemerge34, 10
  %34 = zext nneg i8 %31 to i64
  %35 = add i64 %33, %34
  store i64 %35, ptr %2, align 8
  %36 = getelementptr inbounds i8, ptr %29, i64 1
  %37 = icmp eq ptr %36, %4
  br i1 %37, label %._crit_edge, label %.lr.ph

.loopexit:                                        ; preds = %.lr.ph, %26, %21, %3, %28
  %.0 = phi i1 [ true, %28 ], [ false, %3 ], [ false, %21 ], [ false, %26 ], [ false, %.lr.ph ]
  ret i1 %.0
}